target datalayout = "e-m:e-p270:32:32-p271:32:32-p272:64:64-i64:64-i128:128-f80:128-n8:16:32:64-S128"
target triple = "x86_64-pc-linux-gnu"

%"class.doctest::String" = type { %union.anon }
%union.anon = type { %"struct.doctest::String::view", [8 x i8] }
%"struct.doctest::String::view" = type { ptr, i32, i32 }
%"class.std::vector.23" = type { %"struct.std::_Vector_base.24" }
%"struct.std::_Vector_base.24" = type { %"struct.std::_Vector_base<std::__cxx11::basic_string<char>, std::allocator<std::__cxx11::basic_string<char>>>::_Vector_impl" }
%"struct.std::_Vector_base<std::__cxx11::basic_string<char>, std::allocator<std::__cxx11::basic_string<char>>>::_Vector_impl" = type { %"struct.std::_Vector_base<std::__cxx11::basic_string<char>, std::allocator<std::__cxx11::basic_string<char>>>::_Vector_impl_data" }
%"struct.std::_Vector_base<std::__cxx11::basic_string<char>, std::allocator<std::__cxx11::basic_string<char>>>::_Vector_impl_data" = type { ptr, ptr, ptr }
%"class.std::__cxx11::basic_string" = type { %"struct.std::__cxx11::basic_string<char>::_Alloc_hider", i64, %union.anon.3 }
%"struct.std::__cxx11::basic_string<char>::_Alloc_hider" = type { ptr }
%union.anon.3 = type { i64, [8 x i8] }
%"struct.Luau::CheckResult" = type { %"class.std::vector.210", %"struct.Luau::LintResult", %"class.std::vector.23" }
%"class.std::vector.210" = type { %"struct.std::_Vector_base.211" }
%"struct.std::_Vector_base.211" = type { %"struct.std::_Vector_base<Luau::TypeError, std::allocator<Luau::TypeError>>::_Vector_impl" }
%"struct.std::_Vector_base<Luau::TypeError, std::allocator<Luau::TypeError>>::_Vector_impl" = type { %"struct.std::_Vector_base<Luau::TypeError, std::allocator<Luau::TypeError>>::_Vector_impl_data" }
%"struct.std::_Vector_base<Luau::TypeError, std::allocator<Luau::TypeError>>::_Vector_impl_data" = type { ptr, ptr, ptr }
%"struct.Luau::LintResult" = type { %"class.std::vector.215", %"class.std::vector.215" }
%"class.std::vector.215" = type { %"struct.std::_Vector_base.216" }
%"struct.std::_Vector_base.216" = type { %"struct.std::_Vector_base<Luau::LintWarning, std::allocator<Luau::LintWarning>>::_Vector_impl" }
%"struct.std::_Vector_base<Luau::LintWarning, std::allocator<Luau::LintWarning>>::_Vector_impl" = type { %"struct.std::_Vector_base<Luau::LintWarning, std::allocator<Luau::LintWarning>>::_Vector_impl_data" }
%"struct.std::_Vector_base<Luau::LintWarning, std::allocator<Luau::LintWarning>>::_Vector_impl_data" = type { ptr, ptr, ptr }
%"struct.doctest::detail::ContextScopeBase.base" = type <{ %"struct.doctest::IContextScope", i8 }>
%"struct.doctest::IContextScope" = type { ptr }
%"struct.doctest::detail::MessageBuilder" = type <{ %"struct.doctest::MessageData", ptr, i8, [7 x i8] }>
%"struct.doctest::MessageData" = type { %"class.doctest::String", ptr, i32, i32 }
%"struct.Luau::Location" = type { %"struct.Luau::Position", %"struct.Luau::Position" }
%"struct.Luau::Position" = type { i32, i32 }
%"struct.Luau::TypeError" = type { %"struct.Luau::Location", %"class.std::__cxx11::basic_string", %"class.Luau::Variant.269" }
%"class.Luau::Variant.269" = type { i32, [4 x i8], [104 x i8] }
%"class.doctest::detail::ContextScope.348" = type { %"struct.doctest::detail::ContextScopeBase.base", %class.anon.349 }
%class.anon.349 = type { ptr }

@.str.57 = private unnamed_addr constant [130 x i8] c"generated/home/dtcxzyw/WorkSpace/Projects/compilers/llvm-opt-benchmark/bench/luau/luau/tests/TypeInfer.intersectionTypes.test.cpp\00", align 1

; Function Attrs: mustprogress uwtable
define linkonce_odr dso_local noundef nonnull align 8 dereferenceable(49) ptr @_ZN7doctest6detail14MessageBuildermlIN4Luau7VariantIJNS3_12TypeMismatchENS3_13UnknownSymbolENS3_15UnknownPropertyENS3_9NotATableENS3_17CannotExtendTableENS3_24OnlyTablesCanHaveMethodsENS3_23DuplicateTypeDefinitionENS3_13CountMismatchENS3_23FunctionDoesNotTakeSelfENS3_20FunctionRequiresSelfENS3_17OccursCheckFailedENS3_14UnknownRequireENS3_30IncorrectGenericParameterCountENS3_11SyntaxErrorENS3_14CodeTooComplexENS3_21UnificationTooComplexENS3_27UnknownPropButFoundLikePropENS3_12GenericErrorENS3_13InternalErrorENS3_21CannotCallNonFunctionENS3_16ExtraInformationENS3_17DeprecatedApiUsedENS3_25ModuleHasCyclicDependencyENS3_14IllegalRequireENS3_29FunctionExitsWithoutReturningENS3_25DuplicateGenericParameterENS3_19CannotAssignToNeverENS3_26CannotInferBinaryOperationENS3_17MissingPropertiesENS3_27SwappedGenericTypeParameterENS3_19OptionalValueAccessENS3_20MissingUnionPropertyENS3_17TypesAreUnrelatedENS3_23NormalizationTooComplexENS3_16TypePackMismatchENS3_36DynamicPropertyLookupOnClassesUnsafeENS3_21UninhabitedTypeFamilyENS3_25UninhabitedTypePackFamilyENS3_17WhereClauseNeededENS3_21PackWhereClauseNeededENS3_24CheckedFunctionCallErrorENS3_32NonStrictFunctionDefinitionErrorENS3_23PropertyAccessViolationENS3_28CheckedFunctionIncorrectArgsENS3_25UnexpectedTypeInSubtypingENS3_29UnexpectedTypePackInSubtypingENS3_37ExplicitFunctionAnnotationRecommendedEEEEEERS1_RKT_(ptr noundef nonnull align 8 dereferenceable(49) %0, ptr noundef nonnull align 8 dereferenceable(112) %1) #5 comdat align 2 {
  %3 = alloca ptr, align 8
  %4 = alloca ptr, align 8
  store ptr %0, ptr %3, align 8
  store ptr %1, ptr %4, align 8
  %5 = load ptr, ptr %3, align 8
  %6 = load ptr, ptr %4, align 8
  %7 = call noundef nonnull align 8 dereferenceable(49) ptr @_ZN7doctest6detail14MessageBuildercmIN4Luau7VariantIJNS3_12TypeMismatchENS3_13UnknownSymbolENS3_15UnknownPropertyENS3_9NotATableENS3_17CannotExtendTableENS3_24OnlyTablesCanHaveMethodsENS3_23DuplicateTypeDefinitionENS3_13CountMismatchENS3_23FunctionDoesNotTakeSelfENS3_20FunctionRequiresSelfENS3_17OccursCheckFailedENS3_14UnknownRequireENS3_30IncorrectGenericParameterCountENS3_11SyntaxErrorENS3_14CodeTooComplexENS3_21UnificationTooComplexENS3_27UnknownPropButFoundLikePropENS3_12GenericErrorENS3_13InternalErrorENS3_21CannotCallNonFunctionENS3_16ExtraInformationENS3_17DeprecatedApiUsedENS3_25ModuleHasCyclicDependencyENS3_14IllegalRequireENS3_29FunctionExitsWithoutReturningENS3_25DuplicateGenericParameterENS3_19CannotAssignToNeverENS3_26CannotInferBinaryOperationENS3_17MissingPropertiesENS3_27SwappedGenericTypeParameterENS3_19OptionalValueAccessENS3_20MissingUnionPropertyENS3_17TypesAreUnrelatedENS3_23NormalizationTooComplexENS3_16TypePackMismatchENS3_36DynamicPropertyLookupOnClassesUnsafeENS3_21UninhabitedTypeFamilyENS3_25UninhabitedTypePackFamilyENS3_17WhereClauseNeededENS3_21PackWhereClauseNeededENS3_24CheckedFunctionCallErrorENS3_32NonStrictFunctionDefinitionErrorENS3_23PropertyAccessViolationENS3_28CheckedFunctionIncorrectArgsENS3_25UnexpectedTypeInSubtypingENS3_29UnexpectedTypePackInSubtypingENS3_37ExplicitFunctionAnnotationRecommendedEEEEEERS1_RKT_(ptr noundef nonnull align 8 dereferenceable(49) %5, ptr noundef nonnull align 8 dereferenceable(112) %6)
  ret ptr %7
}

; Function Attrs: mustprogress nounwind uwtable
define linkonce_odr dso_local noundef nonnull align 8 dereferenceable(160) ptr @_ZNSt6vectorIN4Luau9TypeErrorESaIS1_EEixEm(ptr noundef nonnull align 8 dereferenceable(24) %0, i64 noundef %1) #1 comdat align 2 {
  %3 = alloca ptr, align 8
  %4 = alloca i64, align 8
  store ptr %0, ptr %3, align 8
  store i64 %1, ptr %4, align 8
  %5 = load ptr, ptr %3, align 8
  %6 = getelementptr inbounds %"struct.std::_Vector_base.211", ptr %5, i32 0, i32 0
  %7 = getelementptr inbounds %"struct.std::_Vector_base<Luau::TypeError, std::allocator<Luau::TypeError>>::_Vector_impl_data", ptr %6, i32 0, i32 0
  %8 = load ptr, ptr %7, align 8
  %9 = load i64, ptr %4, align 8
  %10 = getelementptr inbounds %"struct.Luau::TypeError", ptr %8, i64 %9
  ret ptr %10
}

; Function Attrs: mustprogress uwtable
define internal void @_ZZN12_GLOBAL__N_121DOCTEST_ANON_CLASS_871fEvENKUlPSoE0_clES1_(ptr noundef nonnull align 8 dereferenceable(8) %0, ptr noundef %1) #5 align 2 personality ptr @__gxx_personality_v0 {
  %3 = alloca ptr, align 8
  %4 = alloca ptr, align 8
  %5 = alloca %"struct.doctest::detail::MessageBuilder", align 8
  %6 = alloca ptr, align 8
  %7 = alloca i32, align 4
  store ptr %0, ptr %3, align 8
  store ptr %1, ptr %4, align 8
  %8 = load ptr, ptr %3, align 8
  call void @_ZN7doctest6detail14MessageBuilderC1EPKciNS_10assertType4EnumE(ptr noundef nonnull align 8 dereferenceable(49) %5, ptr noundef @.str.57, i32 noundef 262, i32 noundef 1)
  %9 = load ptr, ptr %4, align 8
  %10 = getelementptr inbounds %"struct.doctest::detail::MessageBuilder", ptr %5, i32 0, i32 1
  store ptr %9, ptr %10, align 8
  %11 = getelementptr inbounds %class.anon.349, ptr %8, i32 0, i32 0
  %12 = load ptr, ptr %11, align 8
  %13 = getelementptr inbounds %"struct.Luau::CheckResult", ptr %12, i32 0, i32 0
  %14 = call noundef nonnull align 8 dereferenceable(160) ptr @_ZNSt6vectorIN4Luau9TypeErrorESaIS1_EEixEm(ptr noundef nonnull align 8 dereferenceable(24) %13, i64 noundef 0) #2
  %15 = getelementptr inbounds %"struct.Luau::TypeError", ptr %14, i32 0, i32 2
  %16 = invoke noundef nonnull align 8 dereferenceable(49) ptr @_ZN7doctest6detail14MessageBuildermlIN4Luau7VariantIJNS3_12TypeMismatchENS3_13UnknownSymbolENS3_15UnknownPropertyENS3_9NotATableENS3_17CannotExtendTableENS3_24OnlyTablesCanHaveMethodsENS3_23DuplicateTypeDefinitionENS3_13CountMismatchENS3_23FunctionDoesNotTakeSelfENS3_20FunctionRequiresSelfENS3_17OccursCheckFailedENS3_14UnknownRequireENS3_30IncorrectGenericParameterCountENS3_11SyntaxErrorENS3_14CodeTooComplexENS3_21UnificationTooComplexENS3_27UnknownPropButFoundLikePropENS3_12GenericErrorENS3_13InternalErrorENS3_21CannotCallNonFunctionENS3_16ExtraInformationENS3_17DeprecatedApiUsedENS3_25ModuleHasCyclicDependencyENS3_14IllegalRequireENS3_29FunctionExitsWithoutReturningENS3_25DuplicateGenericParameterENS3_19CannotAssignToNeverENS3_26CannotInferBinaryOperationENS3_17MissingPropertiesENS3_27SwappedGenericTypeParameterENS3_19OptionalValueAccessENS3_20MissingUnionPropertyENS3_17TypesAreUnrelatedENS3_23NormalizationTooComplexENS3_16TypePackMismatchENS3_36DynamicPropertyLookupOnClassesUnsafeENS3_21UninhabitedTypeFamilyENS3_25UninhabitedTypePackFamilyENS3_17WhereClauseNeededENS3_21PackWhereClauseNeededENS3_24CheckedFunctionCallErrorENS3_32NonStrictFunctionDefinitionErrorENS3_23PropertyAccessViolationENS3_28CheckedFunctionIncorrectArgsENS3_25UnexpectedTypeInSubtypingENS3_29UnexpectedTypePackInSubtypingENS3_37ExplicitFunctionAnnotationRecommendedEEEEEERS1_RKT_(ptr noundef nonnull align 8 dereferenceable(49) %5, ptr noundef nonnull align 8 dereferenceable(112) %15)
          to label %17 unwind label %18

17:                                               ; preds = %2
  call void @_ZN7doctest6detail14MessageBuilderD1Ev(ptr noundef nonnull align 8 dereferenceable(49) %5) #2
  ret void

18:                                               ; preds = %2
  %19 = landingpad { ptr, i32 }
          cleanup
  %20 = extractvalue { ptr, i32 } %19, 0
  store ptr %20, ptr %6, align 8
  %21 = extractvalue { ptr, i32 } %19, 1
  store i32 %21, ptr %7, align 4
  call void @_ZN7doctest6detail14MessageBuilderD1Ev(ptr noundef nonnull align 8 dereferenceable(49) %5) #2
  br label %22

22:                                               ; preds = %18
  %23 = load ptr, ptr %6, align 8
  %24 = load i32, ptr %7, align 4
  %25 = insertvalue { ptr, i32 } poison, ptr %23, 0
  %26 = insertvalue { ptr, i32 } %25, i32 %24, 1
  resume { ptr, i32 } %26
}

; Function Attrs: mustprogress uwtable
define internal void @_ZNK7doctest6detail12ContextScopeIZN12_GLOBAL__N_121DOCTEST_ANON_CLASS_871fEvEUlPSoE0_E9stringifyES4_(ptr noundef nonnull align 8 dereferenceable(24) %0, ptr noundef %1) unnamed_addr #5 align 2 {
  %3 = alloca ptr, align 8
  %4 = alloca ptr, align 8
  store ptr %0, ptr %3, align 8
  store ptr %1, ptr %4, align 8
  %5 = load ptr, ptr %3, align 8
  %6 = getelementptr inbounds %"class.doctest::detail::ContextScope.348", ptr %5, i32 0, i32 1
  %7 = load ptr, ptr %4, align 8
  call void @_ZZN12_GLOBAL__N_121DOCTEST_ANON_CLASS_871fEvENKUlPSoE0_clES1_(ptr noundef nonnull align 8 dereferenceable(8) %6, ptr noundef %7)
  ret void
}