; Function Attrs: mustprogress uwtable
define internal void @_ZNK7doctest6detail12ContextScopeIZN12_GLOBAL__N_121DOCTEST_ANON_CLASS_871fEvEUlPSoE0_E9stringifyES4_(ptr noundef nonnull readonly align 8 captures(none) dereferenceable(24) %0, ptr noundef %1) unnamed_addr #5 align 2 personality ptr @__gxx_personality_v0 {
  %3 = alloca %"struct.doctest::detail::MessageBuilder", align 8
  %4 = getelementptr inbounds nuw i8, ptr %0, i64 16
  call void @llvm.lifetime.start.p0(i64 56, ptr nonnull %3)
  call void @_ZN7doctest6detail14MessageBuilderC1EPKciNS_10assertType4EnumE(ptr noundef nonnull align 8 dereferenceable(49) %3, ptr noundef nonnull @.str.57, i32 noundef 262, i32 noundef 1)
  %5 = getelementptr inbounds nuw i8, ptr %3, i64 40
  store ptr %1, ptr %5, align 8
  %6 = load ptr, ptr %4, align 8
  %7 = load ptr, ptr %6, align 8
  %8 = getelementptr inbounds nuw i8, ptr %7, i64 48
  %9 = invoke noundef nonnull align 8 dereferenceable(49) ptr @_ZN7doctest6detail14MessageBuildercmIN4Luau7VariantIJNS3_12TypeMismatchENS3_13UnknownSymbolENS3_15UnknownPropertyENS3_9NotATableENS3_17CannotExtendTableENS3_24OnlyTablesCanHaveMethodsENS3_23DuplicateTypeDefinitionENS3_13CountMismatchENS3_23FunctionDoesNotTakeSelfENS3_20FunctionRequiresSelfENS3_17OccursCheckFailedENS3_14UnknownRequireENS3_30IncorrectGenericParameterCountENS3_11SyntaxErrorENS3_14CodeTooComplexENS3_21UnificationTooComplexENS3_27UnknownPropButFoundLikePropENS3_12GenericErrorENS3_13InternalErrorENS3_21CannotCallNonFunctionENS3_16ExtraInformationENS3_17DeprecatedApiUsedENS3_25ModuleHasCyclicDependencyENS3_14IllegalRequireENS3_29FunctionExitsWithoutReturningENS3_25DuplicateGenericParameterENS3_19CannotAssignToNeverENS3_26CannotInferBinaryOperationENS3_17MissingPropertiesENS3_27SwappedGenericTypeParameterENS3_19OptionalValueAccessENS3_20MissingUnionPropertyENS3_17TypesAreUnrelatedENS3_23NormalizationTooComplexENS3_16TypePackMismatchENS3_36DynamicPropertyLookupOnClassesUnsafeENS3_21UninhabitedTypeFamilyENS3_25UninhabitedTypePackFamilyENS3_17WhereClauseNeededENS3_21PackWhereClauseNeededENS3_24CheckedFunctionCallErrorENS3_32NonStrictFunctionDefinitionErrorENS3_23PropertyAccessViolationENS3_28CheckedFunctionIncorrectArgsENS3_25UnexpectedTypeInSubtypingENS3_29UnexpectedTypePackInSubtypingENS3_37ExplicitFunctionAnnotationRecommendedEEEEEERS1_RKT_(ptr noundef nonnull align 8 dereferenceable(49) %3, ptr noundef nonnull align 8 dereferenceable(112) %8)
          to label %_ZZN12_GLOBAL__N_121DOCTEST_ANON_CLASS_871fEvENKUlPSoE0_clES1_.exit unwind label %10

10:                                               ; preds = %2
  %11 = landingpad { ptr, i32 }
          cleanup
  call void @_ZN7doctest6detail14MessageBuilderD1Ev(ptr noundef nonnull align 8 dereferenceable(49) %3) #15
  resume { ptr, i32 } %11

_ZZN12_GLOBAL__N_121DOCTEST_ANON_CLASS_871fEvENKUlPSoE0_clES1_.exit: ; preds = %2
  call void @_ZN7doctest6detail14MessageBuilderD1Ev(ptr noundef nonnull align 8 dereferenceable(49) %3) #15
  call void @llvm.lifetime.end.p0(i64 56, ptr nonnull %3)
  ret void
}